; Function Attrs: mustprogress nounwind memory(read, inaccessiblemem: write) uwtable
define void @_ZN8facebook5velox7variant19verifyArrayElementsERKSt6vectorIS1_SaIS1_EE(ptr nocapture noundef nonnull readonly align 8 dereferenceable(24) %inputs) local_unnamed_addr #8 align 2 {
entry:
  %0 = load ptr, ptr %inputs, align 8
  %_M_finish.i.i = getelementptr inbounds i8, ptr %inputs, i64 8
  %1 = load ptr, ptr %_M_finish.i.i, align 8
  %cmp.i.i = icmp eq ptr %0, %1
  br i1 %cmp.i.i, label %if.end29, label %for.body.preheader

for.body.preheader:                               ; preds = %entry
  %sub.ptr.lhs.cast.i = ptrtoint ptr %1 to i64
  %sub.ptr.rhs.cast.i = ptrtoint ptr %0 to i64
  %sub.ptr.sub.i = sub i64 %sub.ptr.lhs.cast.i, %sub.ptr.rhs.cast.i
  %sub.ptr.div.i = ashr exact i64 %sub.ptr.sub.i, 4
  %umax = tail call i64 @llvm.umax.i64(i64 %sub.ptr.div.i, i64 1)
  br label %for.body

for.body:                                         ; preds = %for.body.preheader, %for.inc
  %indvars.iv = phi i64 [ 0, %for.body.preheader ], [ %indvars.iv.next, %for.inc ]
  %add.ptr.i = getelementptr inbounds %"class.facebook::velox::variant", ptr %0, i64 %indvars.iv
  %ptr_.i = getelementptr inbounds i8, ptr %add.ptr.i, i64 8
  %2 = load ptr, ptr %ptr_.i, align 8
  %cmp.i = icmp eq ptr %2, null
  br i1 %cmp.i, label %for.inc, label %if.then5

if.then5:                                         ; preds = %for.body
  %3 = load i8, ptr %add.ptr.i, align 8
  br label %for.end

for.inc:                                          ; preds = %for.body
  %indvars.iv.next = add nuw i64 %indvars.iv, 1
  %exitcond.not = icmp eq i64 %indvars.iv.next, %umax
  br i1 %exitcond.not, label %for.end, label %for.body, !llvm.loop !95

for.end:                                          ; preds = %for.inc, %if.then5
  %i.027.in = phi i64 [ %indvars.iv, %if.then5 ], [ %umax, %for.inc ]
  %elementTypeKind.0 = phi i8 [ %3, %if.then5 ], [ 33, %for.inc ]
  %conv1032 = and i64 %i.027.in, 4294967295
  %cmp1233 = icmp ugt i64 %sub.ptr.div.i, %conv1032
  br i1 %cmp1233, label %for.body13, label %if.end29

for.body13:                                       ; preds = %for.end, %for.inc26
  %indvars.iv39 = phi i64 [ %indvars.iv.next40, %for.inc26 ], [ %conv1032, %for.end ]
  %add.ptr.i20 = getelementptr inbounds %"class.facebook::velox::variant", ptr %0, i64 %indvars.iv39
  %ptr_.i21 = getelementptr inbounds i8, ptr %add.ptr.i20, i64 8
  %4 = load ptr, ptr %ptr_.i21, align 8
  %cmp.i22 = icmp eq ptr %4, null
  br i1 %cmp.i22, label %for.inc26, label %if.then17

if.then17:                                        ; preds = %for.body13
  %5 = load i8, ptr %add.ptr.i20, align 8
  %cmp21.not = icmp eq i8 %elementTypeKind.0, %5
  br i1 %cmp21.not, label %for.inc26, label %if.then23

if.then23:                                        ; preds = %if.then17
  tail call void @llvm.trap()
  unreachable

for.inc26:                                        ; preds = %for.body13, %if.then17
  %indvars.iv.next40 = add nuw i64 %indvars.iv39, 1
  %cmp12 = icmp ugt i64 %sub.ptr.div.i, %indvars.iv.next40
  br i1 %cmp12, label %for.body13, label %if.end29, !llvm.loop !96

if.end29:                                         ; preds = %for.inc26, %for.end, %entry
  ret void
}